; Function Attrs: mustprogress uwtable
define dso_local noundef i32 @_ZNK10Expression10func_countEv(ptr noundef nonnull align 8 dereferenceable(24) %0) local_unnamed_addr #4 align 2 personality ptr @__gxx_personality_v0 {
  %2 = alloca %"class.std::vector.0", align 8
  call void @llvm.lifetime.start.p0(i64 24, ptr nonnull %2) #18
  call void @llvm.memset.p0.i64(ptr noundef nonnull align 8 dereferenceable(24) %2, i8 0, i64 24, i1 false)
  %3 = load ptr, ptr %0, align 8, !tbaa !11
  %4 = getelementptr inbounds nuw i8, ptr %3, i64 48
  %5 = load ptr, ptr %4, align 8
  invoke void %5(ptr noundef nonnull align 8 dereferenceable(24) %0, ptr noundef nonnull align 8 dereferenceable(24) %2)
          to label %6 unwind label %20

6:                                                ; preds = %1
  %7 = getelementptr inbounds nuw i8, ptr %2, i64 8
  %8 = load ptr, ptr %7, align 8, !tbaa !13
  %9 = load ptr, ptr %2, align 8, !tbaa !16
  %10 = ptrtoint ptr %9 to i64
  %.not.i.i.i = icmp eq ptr %9, null
  br i1 %.not.i.i.i, label %_ZNSt6vectorIPK22FunctionInvocationUserSaIS2_EED2Ev.exit, label %11

11:                                               ; preds = %6
  %12 = getelementptr inbounds nuw i8, ptr %2, i64 16
  %13 = load ptr, ptr %12, align 8, !tbaa !17
  %14 = ptrtoint ptr %13 to i64
  %15 = sub i64 %14, %10
  call void @_ZdlPvm(ptr noundef nonnull %9, i64 noundef %15) #17
  br label %_ZNSt6vectorIPK22FunctionInvocationUserSaIS2_EED2Ev.exit

_ZNSt6vectorIPK22FunctionInvocationUserSaIS2_EED2Ev.exit: ; preds = %6, %11
  %16 = ptrtoint ptr %8 to i64
  %17 = sub i64 %16, %10
  %18 = lshr exact i64 %17, 3
  %19 = trunc i64 %18 to i32
  call void @llvm.lifetime.end.p0(i64 24, ptr nonnull %2) #18
  ret i32 %19

20:                                               ; preds = %1
  %21 = landingpad { ptr, i32 }
          cleanup
  %22 = load ptr, ptr %2, align 8, !tbaa !16
  %.not.i.i.i2 = icmp eq ptr %22, null
  br i1 %.not.i.i.i2, label %_ZNSt6vectorIPK22FunctionInvocationUserSaIS2_EED2Ev.exit3, label %23

23:                                               ; preds = %20
  %24 = getelementptr inbounds nuw i8, ptr %2, i64 16
  %25 = load ptr, ptr %24, align 8, !tbaa !17
  %26 = ptrtoint ptr %25 to i64
  %27 = ptrtoint ptr %22 to i64
  %28 = sub i64 %26, %27
  call void @_ZdlPvm(ptr noundef nonnull %22, i64 noundef %28) #17
  br label %_ZNSt6vectorIPK22FunctionInvocationUserSaIS2_EED2Ev.exit3

_ZNSt6vectorIPK22FunctionInvocationUserSaIS2_EED2Ev.exit3: ; preds = %20, %23
  call void @llvm.lifetime.end.p0(i64 24, ptr nonnull %2) #18
  resume { ptr, i32 } %21
}